target datalayout = "e-m:e-p270:32:32-p271:32:32-p272:64:64-i64:64-i128:128-f80:128-n8:16:32:64-S128"
target triple = "x86_64-unknown-linux-gnu"

; Function Attrs: mustprogress nounwind uwtable
define internal noundef zeroext i1 @_ZN4node6crypto12_GLOBAL__N_128IsSupportedAuthenticatedModeEPK13evp_cipher_st(ptr noundef %cipher) #4 {
entry:
  %retval = alloca i1, align 1
  %cipher.addr = alloca ptr, align 8
  store ptr %cipher, ptr %cipher.addr, align 8
  %0 = load ptr, ptr %cipher.addr, align 8
  %call = call i32 @EVP_CIPHER_get_mode(ptr noundef %0)
  switch i32 %call, label %sw.default [
    i32 7, label %sw.bb
    i32 6, label %sw.bb
    i32 65539, label %sw.bb
    i32 0, label %sw.bb1
  ]

sw.bb:                                            ; preds = %entry, %entry, %entry
  store i1 true, ptr %retval, align 1
  br label %return

sw.bb1:                                           ; preds = %entry
  %1 = load ptr, ptr %cipher.addr, align 8
  %call2 = call i32 @EVP_CIPHER_get_nid(ptr noundef %1)
  %cmp = icmp eq i32 %call2, 1018
  store i1 %cmp, ptr %retval, align 1
  br label %return

sw.default:                                       ; preds = %entry
  store i1 false, ptr %retval, align 1
  br label %return

return:                                           ; preds = %sw.default, %sw.bb1, %sw.bb
  %2 = load i1, ptr %retval, align 1
  ret i1 %2
}

; Function Attrs: mustprogress nounwind uwtable
define internal noundef zeroext i1 @_ZN4node6crypto12_GLOBAL__N_128IsSupportedAuthenticatedModeEPK17evp_cipher_ctx_st(ptr noundef %ctx) #4 {
entry:
  %ctx.addr = alloca ptr, align 8
  %cipher = alloca ptr, align 8
  store ptr %ctx, ptr %ctx.addr, align 8
  %0 = load ptr, ptr %ctx.addr, align 8
  %call = call ptr @EVP_CIPHER_CTX_cipher(ptr noundef %0)
  store ptr %call, ptr %cipher, align 8
  %1 = load ptr, ptr %cipher, align 8
  %call1 = call noundef zeroext i1 @_ZN4node6crypto12_GLOBAL__N_128IsSupportedAuthenticatedModeEPK13evp_cipher_st(ptr noundef %1)
  ret i1 %call1
}