; Function Attrs: mustprogress nounwind uwtable
define internal fastcc noundef zeroext i1 @_ZN4node6crypto12_GLOBAL__N_128IsSupportedAuthenticatedModeEPK17evp_cipher_ctx_st(ptr noundef %ctx) unnamed_addr #3 {
entry:
  %call = tail call ptr @EVP_CIPHER_CTX_cipher(ptr noundef %ctx) #20
  %call.i = tail call i32 @EVP_CIPHER_get_mode(ptr noundef %call) #20
  switch i32 %call.i, label %sw.default.i [
    i32 7, label %_ZN4node6crypto12_GLOBAL__N_128IsSupportedAuthenticatedModeEPK13evp_cipher_st.exit
    i32 6, label %_ZN4node6crypto12_GLOBAL__N_128IsSupportedAuthenticatedModeEPK13evp_cipher_st.exit
    i32 65539, label %_ZN4node6crypto12_GLOBAL__N_128IsSupportedAuthenticatedModeEPK13evp_cipher_st.exit
    i32 0, label %sw.bb1.i
  ]

sw.bb1.i:                                         ; preds = %entry
  %call2.i = tail call i32 @EVP_CIPHER_get_nid(ptr noundef %call) #20
  %cmp.i = icmp eq i32 %call2.i, 1018
  br label %_ZN4node6crypto12_GLOBAL__N_128IsSupportedAuthenticatedModeEPK13evp_cipher_st.exit

sw.default.i:                                     ; preds = %entry
  br label %_ZN4node6crypto12_GLOBAL__N_128IsSupportedAuthenticatedModeEPK13evp_cipher_st.exit

_ZN4node6crypto12_GLOBAL__N_128IsSupportedAuthenticatedModeEPK13evp_cipher_st.exit: ; preds = %entry, %entry, %entry, %sw.bb1.i, %sw.default.i
  %retval.0.i = phi i1 [ false, %sw.default.i ], [ %cmp.i, %sw.bb1.i ], [ true, %entry ], [ true, %entry ], [ true, %entry ]
  ret i1 %retval.0.i
}